target datalayout = "e-m:e-p270:32:32-p271:32:32-p272:64:64-i64:64-i128:128-f80:128-n8:16:32:64-S128"
target triple = "x86_64-pc-linux-gnu"

; Function Attrs: mustprogress nounwind uwtable
define hidden noundef ptr @_ZNK22SystemProcessInterface15SystemProcesses15ProcessIterator15allocate_stringEPKc(ptr noundef nonnull align 8 dereferenceable(8209) %0, ptr noundef %1) #1 align 2 {
  %3 = alloca ptr, align 8
  %4 = alloca ptr, align 8
  %5 = alloca ptr, align 8
  store ptr %0, ptr %4, align 8
  store ptr %1, ptr %5, align 8
  %6 = load ptr, ptr %5, align 8
  %7 = icmp ne ptr %6, null
  br i1 %7, label %8, label %11

8:                                                ; preds = %2
  %9 = load ptr, ptr %5, align 8
  %10 = call noundef ptr @_ZN2os16strdup_check_oomEPKc8MEMFLAGS(ptr noundef %9, i8 noundef zeroext 9)
  store ptr %10, ptr %3, align 8
  br label %12

11:                                               ; preds = %2
  store ptr null, ptr %3, align 8
  br label %12

12:                                               ; preds = %11, %8
  %13 = load ptr, ptr %3, align 8
  ret ptr %13
}