; Function Attrs: mustprogress nounwind uwtable
define hidden noundef ptr @_ZNK22SystemProcessInterface15SystemProcesses15ProcessIterator15allocate_stringEPKc(ptr nocapture noundef nonnull readnone align 8 dereferenceable(8209) %0, ptr noundef %1) local_unnamed_addr #0 align 2 {
  %.not = icmp eq ptr %1, null
  br i1 %.not, label %5, label %3

3:                                                ; preds = %2
  %4 = tail call noundef ptr @_ZN2os16strdup_check_oomEPKc8MEMFLAGS(ptr noundef nonnull %1, i8 noundef zeroext 9) #18
  br label %5

5:                                                ; preds = %2, %3
  %.0 = phi ptr [ %4, %3 ], [ null, %2 ]
  ret ptr %.0
}